; Function Attrs: mustprogress uwtable
define void @_ZNK6casadi7Reshape7eval_mxERKSt6vectorINS_2MXESaIS2_EERS4_(ptr noundef nonnull align 8 dereferenceable(64) %0, ptr noundef nonnull readonly align 8 captures(none) dereferenceable(24) %1, ptr noundef nonnull readonly align 8 captures(none) dereferenceable(24) %2) unnamed_addr #3 align 2 personality ptr @__gxx_personality_v0 {
  %4 = alloca %"class.casadi::MX", align 8
  call void @llvm.lifetime.start.p0(i64 8, ptr nonnull %4) #20
  %5 = load ptr, ptr %1, align 8, !tbaa !38
  %6 = getelementptr inbounds nuw i8, ptr %0, i64 56
  %7 = tail call { i64, i64 } @_ZNK6casadi8Sparsity4sizeEv(ptr noundef nonnull align 8 dereferenceable(8) %6)
  %8 = extractvalue { i64, i64 } %7, 0
  %9 = extractvalue { i64, i64 } %7, 1
  call void @_ZN6casadi2MX7reshapeERKS0_xx(ptr dead_on_unwind nonnull writable sret(%"class.casadi::MX") align 8 %4, ptr noundef nonnull align 8 dereferenceable(8) %5, i64 noundef %8, i64 noundef %9)
  %10 = load ptr, ptr %2, align 8, !tbaa !38
  %11 = invoke noundef nonnull align 8 dereferenceable(8) ptr @_ZN6casadi13GenericSharedINS_12SharedObjectENS_20SharedObjectInternalEEaSERKS3_(ptr noundef nonnull align 8 dereferenceable(8) %10, ptr noundef nonnull align 8 dereferenceable(8) %4)
          to label %_ZN6casadi2MXaSERKS0_.exit unwind label %12

_ZN6casadi2MXaSERKS0_.exit:                       ; preds = %3
  call void @_ZN6casadi2MXD1Ev(ptr noundef nonnull align 8 dereferenceable(8) %4) #20
  call void @llvm.lifetime.end.p0(i64 8, ptr nonnull %4) #20
  ret void

12:                                               ; preds = %3
  %13 = landingpad { ptr, i32 }
          cleanup
  call void @_ZN6casadi2MXD1Ev(ptr noundef nonnull align 8 dereferenceable(8) %4) #20
  call void @llvm.lifetime.end.p0(i64 8, ptr nonnull %4) #20
  resume { ptr, i32 } %13
}